EXPORTS
?getMap@CvGlobals@@QAEAAVCvMap@@XZ=?getMapExternal@CvGlobals@@QAEAAVCvMap@@XZ
?getGame@CvGlobals@@QAEAAVCvGameAI@@XZ=?getGameExternal@CvGlobals@@QAEAAVCvGameAI@@XZ
?numPlots@CvMap@@QBEHXZ=?numPlotsExternal@CvMap@@QBEHXZ
?isWrapX@CvMap@@QAE_NXZ=?isWrapXExternal@CvMap@@QAE_NXZ
?isWrapY@CvMap@@QAE_NXZ=?isWrapYExternal@CvMap@@QAE_NXZ
?isWrap@CvMap@@QAE_NXZ=?isWrapExternal@CvMap@@QAE_NXZ
?plotByIndex@CvMap@@QBEPAVCvPlot@@H@Z=?plotByIndexExternal@CvMap@@QBEPAVCvPlot@@H@Z
?isAtWar@CvTeam@@QBE_NW4TeamTypes@@@Z=?isAtWarExternal@CvTeam@@QBE_NW4TeamTypes@@@Z
?isPromotionReady@CvUnit@@QBE_NXZ=?isPromotionReadyExternal@CvUnit@@QBE_NXZ
?getUnit@@YAPAVCvUnit@@UIDInfo@@@Z=?getUnitExternal@@YAPAVCvUnit@@UIDInfo@@@Z
?getCity@@YAPAVCvCity@@UIDInfo@@@Z=?getCityExternal@@YAPAVCvCity@@UIDInfo@@@Z
?getColorTypePrimary@CvPlayerColorInfo@@QBEHXZ=?getColorTypePrimaryExternal@CvPlayerColorInfo@@QBEHXZ
?getColorTypeSecondary@CvPlayerColorInfo@@QBEHXZ=?getColorTypeSecondaryExternal@CvPlayerColorInfo@@QBEHXZ
?getPlayerColor@CvPlayer@@QBE?AW4PlayerColorTypes@@XZ=?getPlayerColorExternal@CvPlayer@@QBE?AW4PlayerColorTypes@@XZ
?get@CvRandom@@QAEGGPBD@Z=?getExternal@CvRandom@@QAEGGPBD@Z
?setLeader@CvInitCore@@QAEXW4PlayerTypes@@W4LeaderHeadTypes@@@Z=?setLeaderExternal@CvInitCore@@QAEXW4PlayerTypes@@W4LeaderHeadTypes@@@Z
?isCity@CvPlot@@QBE_N_NW4TeamTypes@@@Z=?isCityExternal@CvPlot@@QBE_N_NW4TeamTypes@@@Z
?headFirstTradesNode@CvDeal@@QBEPAV?$CLLNode@UTradeData@@@@XZ=?headFirstTradesNodeExternal@CvDeal@@QBEPAV?$CLLNode@UTradeData@@@@XZ
?headSecondTradesNode@CvDeal@@QBEPAV?$CLLNode@UTradeData@@@@XZ=?headSecondTradesNodeExternal@CvDeal@@QBEPAV?$CLLNode@UTradeData@@@@XZ
?nextFirstTradesNode@CvDeal@@QBEPAV?$CLLNode@UTradeData@@@@PAV2@@Z=?nextFirstTradesNodeExternal@CvDeal@@QBEPAV?$CLLNode@UTradeData@@@@PAV2@@Z
?nextSecondTradesNode@CvDeal@@QBEPAV?$CLLNode@UTradeData@@@@PAV2@@Z=?nextSecondTradesNodeExternal@CvDeal@@QBEPAV?$CLLNode@UTradeData@@@@PAV2@@Z
?getGroup@CvUnit@@QBEPAVCvSelectionGroup@@XZ=?getGroupExternal@CvUnit@@QBEPAVCvSelectionGroup@@XZ
?nextUnitNode@CvSelectionGroup@@QBEPAV?$CLLNode@UIDInfo@@@@PAV2@@Z=?nextUnitNodeExternal@CvSelectionGroup@@QBEPAV?$CLLNode@UIDInfo@@@@PAV2@@Z
?headUnitNode@CvSelectionGroup@@QBEPAV?$CLLNode@UIDInfo@@@@XZ=?headUnitNodeExternal@CvSelectionGroup@@QBEPAV?$CLLNode@UIDInfo@@@@XZ
?getHeadUnit@CvSelectionGroup@@QBEPAVCvUnit@@XZ=?getHeadUnitExternal@CvSelectionGroup@@QBEPAVCvUnit@@XZ
?nextUnitNode@CvPlot@@QBEPAV?$CLLNode@UIDInfo@@@@PAV2@@Z=?nextUnitNodeExternal@CvPlot@@QBEPAV?$CLLNode@UIDInfo@@@@PAV2@@Z
?shuffle@@YAPAHHAAVCvRandom@@@Z=?shuffleExternal@@YAPAHHAAVCvRandom@@@Z
?getDefineINT@CvGlobals@@QBEHPBD@Z=?getDefineINTExternal@CvGlobals@@QBEHPBD@Z
