EXPORTS
?getMap@CvGlobals@@QAEAAVCvMap@@XZ=?getMapExternal@CvGlobals@@QAEAAVCvMap@@XZ
?getGame@CvGlobals@@QAEAAVCvGameAI@@XZ=?getGameExternal@CvGlobals@@QAEAAVCvGameAI@@XZ
?getX@CvPlot@@QBEHXZ=?getXExternal@CvPlot@@QBEHXZ
?getY@CvPlot@@QBEHXZ=?getYExternal@CvPlot@@QBEHXZ
?getOwner@CvPlot@@QBE?AW4PlayerTypes@@XZ=?getOwnerExternal@CvPlot@@QBE?AW4PlayerTypes@@XZ
?getX@CvCity@@QBEHXZ=?getXExternal@CvCity@@QBEHXZ
?getY@CvCity@@QBEHXZ=?getYExternal@CvCity@@QBEHXZ
?getOwner@CvCity@@QBE?AW4PlayerTypes@@XZ=?getOwnerExternal@CvCity@@QBE?AW4PlayerTypes@@XZ
?getX@CvUnit@@QBEHXZ=?getXExternal@CvUnit@@QBEHXZ
?getY@CvUnit@@QBEHXZ=?getYExternal@CvUnit@@QBEHXZ
?getOwner@CvUnit@@QBE?AW4PlayerTypes@@XZ=?getOwnerExternal@CvUnit@@QBE?AW4PlayerTypes@@XZ
?isPlot@CvMap@@QBE_NHH@Z=?isPlotExternal@CvMap@@QBE_NHH@Z
?numPlots@CvMap@@QBEHXZ=?numPlotsExternal@CvMap@@QBEHXZ
?plotNum@CvMap@@QBEHHH@Z=?plotNumExternal@CvMap@@QBEHHH@Z
?getGridWidth@CvMap@@QBEHXZ=?getGridWidthExternal@CvMap@@QBEHXZ
?getGridHeight@CvMap@@QBEHXZ=?getGridHeightExternal@CvMap@@QBEHXZ
?isWrapX@CvMap@@QAE_NXZ=?isWrapXExternal@CvMap@@QAE_NXZ
?isWrapY@CvMap@@QAE_NXZ=?isWrapYExternal@CvMap@@QAE_NXZ
?isWrap@CvMap@@QAE_NXZ=?isWrapExternal@CvMap@@QAE_NXZ
?plotByIndex@CvMap@@QBEPAVCvPlot@@H@Z=?plotByIndexExternal@CvMap@@QBEPAVCvPlot@@H@Z
?plot@CvMap@@QBEPAVCvPlot@@HH@Z=?plotExternal@CvMap@@QBEPAVCvPlot@@HH@Z
